; Function Attrs: nounwind uwtable
define hidden void @zim_DateTimeImmutable_setISODate(ptr nocapture noundef readonly %0, ptr nocapture noundef writeonly %1) #0 {
  %3 = alloca i64, align 8
  %4 = alloca i64, align 8
  %5 = alloca i64, align 8
  store i64 1, ptr %5, align 8
  %6 = getelementptr inbounds i8, ptr %0, i64 44
  %7 = load i32, ptr %6, align 4
  %8 = call i32 (i32, ptr, ...) @zend_parse_parameters(i32 noundef %7, ptr noundef nonnull @.str.52, ptr noundef nonnull %3, ptr noundef nonnull %4, ptr noundef nonnull %5) #25
  %9 = icmp eq i32 %8, -1
  br i1 %9, label %10, label %13

10:                                               ; preds = %2
  %11 = load ptr, ptr getelementptr inbounds (%struct._zend_executor_globals, ptr @executor_globals, i64 0, i32 50), align 8
  %12 = icmp ne ptr %11, null
  call void @llvm.assume(i1 %12)
  br label %20

13:                                               ; preds = %2
  %14 = getelementptr inbounds i8, ptr %0, i64 32
  %.val7 = load ptr, ptr %14, align 8
  %15 = call ptr @date_object_clone_date(ptr noundef %.val7)
  %16 = load i64, ptr %3, align 8
  %17 = load i64, ptr %4, align 8
  %18 = load i64, ptr %5, align 8
  call fastcc void @php_date_isodate_set(ptr nonnull %15, i64 noundef %16, i64 noundef %17, i64 noundef %18)
  store ptr %15, ptr %1, align 8
  %19 = getelementptr inbounds i8, ptr %1, i64 8
  store i32 776, ptr %19, align 8
  br label %20

20:                                               ; preds = %13, %10
  ret void
}